target datalayout = "e-m:e-p270:32:32-p271:32:32-p272:64:64-i64:64-i128:128-f80:128-n8:16:32:64-S128"
target triple = "x86_64-pc-linux-gnu"

%struct.__va_list_tag = type { i32, i32, ptr, ptr }
%"class.nanobind::builtin_exception" = type <{ %"class.std::runtime_error", i32, [4 x i8] }>
%"class.std::runtime_error" = type { %"class.std::exception", %"struct.std::__cow_string" }
%"class.std::exception" = type { ptr }
%"struct.std::__cow_string" = type { %union.anon }
%union.anon = type { ptr }

@_ZTIN8nanobind17builtin_exceptionE = external constant ptr
@_ZTVN8nanobind17builtin_exceptionE = available_externally unnamed_addr constant { [5 x ptr] } { [5 x ptr] [ptr null, ptr @_ZTIN8nanobind17builtin_exceptionE, ptr @_ZN8nanobind17builtin_exceptionD1Ev, ptr @_ZN8nanobind17builtin_exceptionD0Ev, ptr @_ZNKSt13runtime_error4whatEv] }, align 8

; Function Attrs: mustprogress nounwind uwtable
define linkonce_odr void @_ZN8nanobind17builtin_exceptionC2EOS0_(ptr noundef nonnull align 8 dereferenceable(20) %0, ptr noundef nonnull align 8 dereferenceable(20) %1) unnamed_addr #4 comdat align 2 {
  %3 = alloca ptr, align 8
  %4 = alloca ptr, align 8
  store ptr %0, ptr %3, align 8
  store ptr %1, ptr %4, align 8
  %5 = load ptr, ptr %3, align 8
  %6 = load ptr, ptr %4, align 8
  call void @_ZNSt13runtime_errorC2EOS_(ptr noundef nonnull align 8 dereferenceable(16) %5, ptr noundef nonnull align 8 dereferenceable(16) %6) #20
  store ptr getelementptr inbounds inrange(-16, 24) ({ [5 x ptr] }, ptr @_ZTVN8nanobind17builtin_exceptionE, i32 0, i32 0, i32 2), ptr %5, align 8
  %7 = getelementptr inbounds nuw %"class.nanobind::builtin_exception", ptr %5, i32 0, i32 1
  %8 = load ptr, ptr %4, align 8
  %9 = getelementptr inbounds nuw %"class.nanobind::builtin_exception", ptr %8, i32 0, i32 1
  %10 = load i32, ptr %9, align 8
  store i32 %10, ptr %7, align 8
  ret void
}

; Function Attrs: mustprogress noreturn uwtable
define void @_ZN8nanobind6detail5raiseEPKcz(ptr noundef %0, ...) #0 personality ptr @__gxx_personality_v0 {
  %2 = alloca ptr, align 8
  %3 = alloca [1 x %struct.__va_list_tag], align 16
  %4 = alloca %"class.nanobind::builtin_exception", align 8
  %5 = alloca ptr, align 8
  %6 = alloca i32, align 4
  store ptr %0, ptr %2, align 8
  call void @llvm.lifetime.start.p0(i64 24, ptr %3) #20
  %7 = getelementptr inbounds [1 x %struct.__va_list_tag], ptr %3, i64 0, i64 0
  call void @llvm.va_start.p0(ptr %7)
  call void @llvm.lifetime.start.p0(i64 24, ptr %4) #20
  %8 = load ptr, ptr %2, align 8
  %9 = getelementptr inbounds [1 x %struct.__va_list_tag], ptr %3, i64 0, i64 0
  call void @_ZN8nanobind6detailL16create_exceptionENS_14exception_typeEPKcP13__va_list_tag(ptr dead_on_unwind writable sret(%"class.nanobind::builtin_exception") align 8 %4, i32 noundef 0, ptr noundef %8, ptr noundef %9)
  %10 = getelementptr inbounds [1 x %struct.__va_list_tag], ptr %3, i64 0, i64 0
  call void @llvm.va_end.p0(ptr %10)
  %11 = call ptr @__cxa_allocate_exception(i64 24) #20
  call void @_ZN8nanobind17builtin_exceptionC2EOS0_(ptr noundef nonnull align 8 dereferenceable(20) %11, ptr noundef nonnull align 8 dereferenceable(20) %4) #20
  invoke void @__cxa_throw(ptr %11, ptr @_ZTIN8nanobind17builtin_exceptionE, ptr @_ZN8nanobind17builtin_exceptionD1Ev) #21
          to label %21 unwind label %12

12:                                               ; preds = %1
  %13 = landingpad { ptr, i32 }
          cleanup
  %14 = extractvalue { ptr, i32 } %13, 0
  store ptr %14, ptr %5, align 8
  %15 = extractvalue { ptr, i32 } %13, 1
  store i32 %15, ptr %6, align 4
  call void @_ZN8nanobind17builtin_exceptionD1Ev(ptr noundef nonnull align 8 dereferenceable(20) %4) #20
  call void @llvm.lifetime.end.p0(i64 24, ptr %4) #20
  call void @llvm.lifetime.end.p0(i64 24, ptr %3) #20
  br label %16

16:                                               ; preds = %12
  %17 = load ptr, ptr %5, align 8
  %18 = load i32, ptr %6, align 4
  %19 = insertvalue { ptr, i32 } poison, ptr %17, 0
  %20 = insertvalue { ptr, i32 } %19, i32 %18, 1
  resume { ptr, i32 } %20

21:                                               ; preds = %1
  unreachable
}